; Function Attrs: nounwind uwtable
define internal void @_exc_node_part_free(ptr noundef %0) #0 {
  %2 = alloca ptr, align 8
  call void @llvm.lifetime.start.p0(i64 8, ptr nonnull %2) #12
  store ptr %0, ptr %2, align 8
  %3 = getelementptr inbounds nuw i8, ptr %0, i64 8
  %4 = load ptr, ptr %3, align 8
  %.not = icmp eq ptr %4, null
  br i1 %.not, label %6, label %5

5:                                                ; preds = %1
  tail call void @slurm_bit_free(ptr noundef nonnull %3) #12
  br label %6

6:                                                ; preds = %5, %1
  store ptr null, ptr %3, align 8
  call void @slurm_xfree(ptr noundef nonnull %2) #12
  call void @llvm.lifetime.end.p0(i64 8, ptr nonnull %2) #12
  ret void
}